target datalayout = "e-m:e-p270:32:32-p271:32:32-p272:64:64-i64:64-i128:128-f80:128-n8:16:32:64-S128"
target triple = "x86_64-pc-linux-gnu"

%struct.PACKET = type { ptr, i64 }

@.str.5 = private unnamed_addr constant [33 x i8] c"../openssl/test/quic_wire_test.c\00", align 1
@.str.185 = private unnamed_addr constant [62 x i8] c"PACKET_buf_init(&pkt, non_minimal[idx], non_minimal_len[idx])\00", align 1
@non_minimal = internal constant [6 x ptr] [ptr @non_minimal_1, ptr @non_minimal_2, ptr @non_minimal_3, ptr @non_minimal_4, ptr @non_minimal_5, ptr @non_minimal_6], align 16
@non_minimal_len = internal constant [6 x i64] [i64 2, i64 2, i64 4, i64 4, i64 8, i64 8], align 16
@.str.186 = private unnamed_addr constant [65 x i8] c"ossl_quic_wire_peek_frame_header(&pkt, &frame_type, &is_minimal)\00", align 1
@.str.187 = private unnamed_addr constant [11 x i8] c"is_minimal\00", align 1

; Function Attrs: inlinehint nounwind uwtable
define internal i32 @PACKET_buf_init(ptr noundef %0, ptr noundef %1, i64 noundef %2) #3 {
  %4 = alloca i32, align 4
  %5 = alloca ptr, align 8
  %6 = alloca ptr, align 8
  %7 = alloca i64, align 8
  store ptr %0, ptr %5, align 8, !tbaa !40
  store ptr %1, ptr %6, align 8, !tbaa !39
  store i64 %2, ptr %7, align 8, !tbaa !19
  %8 = load i64, ptr %7, align 8, !tbaa !19
  %9 = icmp ugt i64 %8, 9223372036854775807
  br i1 %9, label %10, label %11

10:                                               ; preds = %3
  store i32 0, ptr %4, align 4
  br label %18

11:                                               ; preds = %3
  %12 = load ptr, ptr %6, align 8, !tbaa !39
  %13 = load ptr, ptr %5, align 8, !tbaa !40
  %14 = getelementptr inbounds nuw %struct.PACKET, ptr %13, i32 0, i32 0
  store ptr %12, ptr %14, align 8, !tbaa !41
  %15 = load i64, ptr %7, align 8, !tbaa !19
  %16 = load ptr, ptr %5, align 8, !tbaa !40
  %17 = getelementptr inbounds nuw %struct.PACKET, ptr %16, i32 0, i32 1
  store i64 %15, ptr %17, align 8, !tbaa !43
  store i32 1, ptr %4, align 4
  br label %18

18:                                               ; preds = %11, %10
  %19 = load i32, ptr %4, align 4
  ret i32 %19
}

; Function Attrs: nounwind uwtable
define internal i32 @test_wire_minimal(i32 noundef %0) #0 {
  %2 = alloca i32, align 4
  %3 = alloca i32, align 4
  %4 = alloca i32, align 4
  %5 = alloca i64, align 8
  %6 = alloca %struct.PACKET, align 8
  store i32 %0, ptr %2, align 4, !tbaa !4
  call void @llvm.lifetime.start.p0(i64 4, ptr %3) #5
  store i32 0, ptr %3, align 4, !tbaa !4
  call void @llvm.lifetime.start.p0(i64 4, ptr %4) #5
  call void @llvm.lifetime.start.p0(i64 8, ptr %5) #5
  call void @llvm.lifetime.start.p0(i64 16, ptr %6) #5
  %7 = load i32, ptr %2, align 4, !tbaa !4
  %8 = sext i32 %7 to i64
  %9 = getelementptr inbounds [6 x ptr], ptr @non_minimal, i64 0, i64 %8
  %10 = load ptr, ptr %9, align 8, !tbaa !39
  %11 = load i32, ptr %2, align 4, !tbaa !4
  %12 = sext i32 %11 to i64
  %13 = getelementptr inbounds [6 x i64], ptr @non_minimal_len, i64 0, i64 %12
  %14 = load i64, ptr %13, align 8, !tbaa !19
  %15 = call i32 @PACKET_buf_init(ptr noundef %6, ptr noundef %10, i64 noundef %14)
  %16 = icmp ne i32 %15, 0
  %17 = zext i1 %16 to i32
  %18 = call i32 @test_true(ptr noundef @.str.5, i32 noundef 1622, ptr noundef @.str.185, i32 noundef %17)
  %19 = icmp ne i32 %18, 0
  br i1 %19, label %21, label %20

20:                                               ; preds = %1
  br label %36

21:                                               ; preds = %1
  %22 = call i32 @ossl_quic_wire_peek_frame_header(ptr noundef %6, ptr noundef %5, ptr noundef %4)
  %23 = icmp ne i32 %22, 0
  %24 = zext i1 %23 to i32
  %25 = call i32 @test_true(ptr noundef @.str.5, i32 noundef 1626, ptr noundef @.str.186, i32 noundef %24)
  %26 = icmp ne i32 %25, 0
  br i1 %26, label %28, label %27

27:                                               ; preds = %21
  br label %36

28:                                               ; preds = %21
  %29 = load i32, ptr %4, align 4, !tbaa !4
  %30 = icmp ne i32 %29, 0
  %31 = zext i1 %30 to i32
  %32 = call i32 @test_false(ptr noundef @.str.5, i32 noundef 1629, ptr noundef @.str.187, i32 noundef %31)
  %33 = icmp ne i32 %32, 0
  br i1 %33, label %35, label %34

34:                                               ; preds = %28
  br label %36

35:                                               ; preds = %28
  store i32 1, ptr %3, align 4, !tbaa !4
  br label %36

36:                                               ; preds = %35, %34, %27, %20
  %37 = load i32, ptr %3, align 4, !tbaa !4
  call void @llvm.lifetime.end.p0(i64 16, ptr %6) #5
  call void @llvm.lifetime.end.p0(i64 8, ptr %5) #5
  call void @llvm.lifetime.end.p0(i64 4, ptr %4) #5
  call void @llvm.lifetime.end.p0(i64 4, ptr %3) #5
  ret i32 %37
}