; Function Attrs: nounwind uwtable
define internal range(i32 0, 2) i32 @test_wire_minimal(i32 noundef %0) #0 {
PACKET_buf_init.exit:
  %1 = alloca i32, align 4
  %2 = alloca i64, align 8
  %3 = alloca %struct.PACKET, align 8
  call void @llvm.lifetime.start.p0(i64 4, ptr nonnull %1) #4
  call void @llvm.lifetime.start.p0(i64 8, ptr nonnull %2) #4
  call void @llvm.lifetime.start.p0(i64 16, ptr nonnull %3) #4
  %4 = sext i32 %0 to i64
  %5 = getelementptr inbounds [6 x i64], ptr @non_minimal_len, i64 0, i64 %4
  %6 = load i64, ptr %5, align 8, !tbaa !13
  %7 = getelementptr inbounds [6 x ptr], ptr @non_minimal, i64 0, i64 %4
  %8 = load ptr, ptr %7, align 8, !tbaa !32
  store ptr %8, ptr %3, align 8, !tbaa !16
  %9 = getelementptr inbounds nuw i8, ptr %3, i64 8
  store i64 %6, ptr %9, align 8, !tbaa !18
  %10 = tail call i32 @test_true(ptr noundef nonnull @.str.5, i32 noundef 1622, ptr noundef nonnull @.str.185, i32 noundef 1) #4
  %.not = icmp eq i32 %10, 0
  br i1 %.not, label %21, label %11

11:                                               ; preds = %PACKET_buf_init.exit
  %12 = call i32 @ossl_quic_wire_peek_frame_header(ptr noundef nonnull %3, ptr noundef nonnull %2, ptr noundef nonnull %1) #4
  %13 = icmp ne i32 %12, 0
  %14 = zext i1 %13 to i32
  %15 = call i32 @test_true(ptr noundef nonnull @.str.5, i32 noundef 1626, ptr noundef nonnull @.str.186, i32 noundef %14) #4
  %.not3 = icmp eq i32 %15, 0
  br i1 %.not3, label %21, label %16

16:                                               ; preds = %11
  %17 = load i32, ptr %1, align 4, !tbaa !33
  %18 = icmp ne i32 %17, 0
  %19 = zext i1 %18 to i32
  %20 = call i32 @test_false(ptr noundef nonnull @.str.5, i32 noundef 1629, ptr noundef nonnull @.str.187, i32 noundef %19) #4
  %.not4 = icmp ne i32 %20, 0
  %spec.select = zext i1 %.not4 to i32
  br label %21

21:                                               ; preds = %16, %11, %PACKET_buf_init.exit
  %.0 = phi i32 [ 0, %11 ], [ 0, %PACKET_buf_init.exit ], [ %spec.select, %16 ]
  call void @llvm.lifetime.end.p0(i64 16, ptr nonnull %3) #4
  call void @llvm.lifetime.end.p0(i64 8, ptr nonnull %2) #4
  call void @llvm.lifetime.end.p0(i64 4, ptr nonnull %1) #4
  ret i32 %.0
}